; Function Attrs: nounwind uwtable
define ptr @l_Lake_Toml_elabLit(ptr noundef %0, ptr noundef %1, ptr noundef %2, ptr noundef %3, ptr noundef %4, ptr noundef %5) local_unnamed_addr #0 {
  %7 = tail call ptr @l_Lean_Syntax_isLit_x3f(ptr noundef %0, ptr noundef %1) #7
  %8 = ptrtoint ptr %7 to i64
  %9 = and i64 %8, 1
  %.not.i29 = icmp eq i64 %9, 0
  br i1 %.not.i29, label %13, label %10

10:                                               ; preds = %6
  %11 = lshr i64 %8, 1
  %12 = trunc i64 %11 to i32
  br label %lean_obj_tag.exit

13:                                               ; preds = %6
  %14 = getelementptr i8, ptr %7, i64 4
  %.val.i = load i32, ptr %14, align 4
  %15 = lshr i32 %.val.i, 24
  br label %lean_obj_tag.exit

lean_obj_tag.exit:                                ; preds = %10, %13
  %.0.i = phi i32 [ %12, %10 ], [ %15, %13 ]
  %16 = icmp eq i32 %.0.i, 0
  br i1 %16, label %17, label %29

17:                                               ; preds = %lean_obj_tag.exit
  %18 = load ptr, ptr @l_Lake_Toml_elabLit___closed__1, align 8, !tbaa !4
  %19 = tail call ptr @lean_string_append(ptr noundef %18, ptr noundef %2) #7
  %20 = load ptr, ptr @l_Lake_Toml_elabLit___closed__2, align 8, !tbaa !4
  %21 = tail call ptr @lean_string_append(ptr noundef %19, ptr noundef %20) #7
  tail call void @lean_inc_heartbeat() #7
  %22 = tail call noalias ptr @mi_malloc_small(i64 noundef 16) #7
  %23 = icmp eq ptr %22, null
  br i1 %23, label %24, label %lean_alloc_ctor.exit

24:                                               ; preds = %17
  tail call void @lean_internal_panic_out_of_memory() #8
  unreachable

lean_alloc_ctor.exit:                             ; preds = %17
  %25 = getelementptr inbounds nuw i8, ptr %22, i64 4
  store i32 1, ptr %22, align 4, !tbaa !8
  store i32 50397200, ptr %25, align 4
  %26 = getelementptr inbounds nuw i8, ptr %22, i64 8
  store ptr %21, ptr %26, align 8, !tbaa !4
  %27 = tail call ptr @l_Lean_MessageData_ofFormat(ptr noundef nonnull %22) #7
  %28 = tail call ptr @l_Lean_throwErrorAt___at_Lake_Toml_elabLit___spec__1(ptr noundef %1, ptr noundef %27, ptr noundef %3, ptr noundef %4, ptr noundef %5)
  br label %62

29:                                               ; preds = %lean_obj_tag.exit
  %30 = ptrtoint ptr %3 to i64
  %31 = and i64 %30, 1
  %.not = icmp eq i64 %31, 0
  br i1 %.not, label %32, label %lean_dec.exit26

32:                                               ; preds = %29
  %33 = load i32, ptr %3, align 4, !tbaa !8
  %34 = icmp sgt i32 %33, 1
  br i1 %34, label %35, label %37, !prof !11

35:                                               ; preds = %32
  %36 = add nsw i32 %33, -1
  store i32 %36, ptr %3, align 4, !tbaa !8
  br label %lean_dec.exit26

37:                                               ; preds = %32
  %.not.i = icmp eq i32 %33, 0
  br i1 %.not.i, label %lean_dec.exit26, label %38

38:                                               ; preds = %37
  tail call void @lean_dec_ref_cold(ptr noundef nonnull %3) #7
  br label %lean_dec.exit26

lean_dec.exit26:                                  ; preds = %38, %37, %35, %29
  %39 = getelementptr inbounds nuw i8, ptr %7, i64 8
  %40 = load ptr, ptr %39, align 8, !tbaa !4
  %41 = ptrtoint ptr %40 to i64
  %42 = and i64 %41, 1
  %.not33 = icmp eq i64 %42, 0
  br i1 %.not33, label %43, label %lean_inc.exit

43:                                               ; preds = %lean_dec.exit26
  %.val.i30 = load i32, ptr %40, align 4, !tbaa !8
  %44 = icmp sgt i32 %.val.i30, 0
  br i1 %44, label %45, label %47, !prof !11

45:                                               ; preds = %43
  %46 = add nuw i32 %.val.i30, 1
  store i32 %46, ptr %40, align 4, !tbaa !8
  br label %lean_inc.exit

47:                                               ; preds = %43
  %.not.i31 = icmp eq i32 %.val.i30, 0
  br i1 %.not.i31, label %lean_inc.exit, label %48

48:                                               ; preds = %47
  tail call void @lean_inc_ref_cold(ptr noundef nonnull %40) #7
  br label %lean_inc.exit

lean_inc.exit:                                    ; preds = %48, %47, %45, %lean_dec.exit26
  br i1 %.not.i29, label %49, label %lean_dec.exit

49:                                               ; preds = %lean_inc.exit
  %50 = load i32, ptr %7, align 4, !tbaa !8
  %51 = icmp sgt i32 %50, 1
  br i1 %51, label %52, label %54, !prof !11

52:                                               ; preds = %49
  %53 = add nsw i32 %50, -1
  store i32 %53, ptr %7, align 4, !tbaa !8
  br label %lean_dec.exit

54:                                               ; preds = %49
  %.not.i27 = icmp eq i32 %50, 0
  br i1 %.not.i27, label %lean_dec.exit, label %55

55:                                               ; preds = %54
  tail call void @lean_dec_ref_cold(ptr noundef nonnull %7) #7
  br label %lean_dec.exit

lean_dec.exit:                                    ; preds = %55, %54, %52, %lean_inc.exit
  tail call void @lean_inc_heartbeat() #7
  %56 = tail call noalias ptr @mi_malloc_small(i64 noundef 24) #7
  %57 = icmp eq ptr %56, null
  br i1 %57, label %58, label %lean_alloc_ctor.exit32

58:                                               ; preds = %lean_dec.exit
  tail call void @lean_internal_panic_out_of_memory() #8
  unreachable

lean_alloc_ctor.exit32:                           ; preds = %lean_dec.exit
  %59 = getelementptr inbounds nuw i8, ptr %56, i64 4
  store i32 1, ptr %56, align 4, !tbaa !8
  store i32 131096, ptr %59, align 4
  %60 = getelementptr inbounds nuw i8, ptr %56, i64 8
  store ptr %40, ptr %60, align 8, !tbaa !4
  %61 = getelementptr inbounds nuw i8, ptr %56, i64 16
  store ptr %5, ptr %61, align 8, !tbaa !4
  br label %62

62:                                               ; preds = %lean_alloc_ctor.exit32, %lean_alloc_ctor.exit
  %.0 = phi ptr [ %28, %lean_alloc_ctor.exit ], [ %56, %lean_alloc_ctor.exit32 ]
  ret ptr %.0
}